target datalayout = "e-m:e-p270:32:32-p271:32:32-p272:64:64-i64:64-i128:128-f80:128-n8:16:32:64-S128"
target triple = "x86_64-unknown-linux-gnu"

%struct.V9fsPath = type { i16, ptr }
%struct.V9fsPDU = type { i32, i16, i8, i8, %struct.CoQueue, ptr, %struct.anon.2, i32 }
%struct.CoQueue = type { %struct.anon.1 }
%struct.anon.1 = type { ptr, ptr }
%struct.anon.2 = type { ptr, ptr }
%struct.CoMutex = type { i32, ptr, %struct.anon.3, %struct.anon.3, i32, i32, ptr }
%struct.anon.3 = type { ptr }
%struct.QemuMutex = type { %union.pthread_mutex_t, i8 }
%union.pthread_mutex_t = type { %struct.__pthread_mutex_s }
%struct.__pthread_mutex_s = type { i32, i32, i32, i32, i32, i16, i16, %struct.__pthread_internal_list }
%struct.__pthread_internal_list = type { ptr, ptr }
%struct.V9fsFidState = type { i32, i32, %struct.V9fsPath, %union.V9fsFidOpenState, %union.V9fsFidOpenState, i32, i32, i32, i32, i8, %struct.anon.6, %struct.anon.7 }
%union.V9fsFidOpenState = type { %struct.V9fsDir }
%struct.V9fsDir = type { ptr, i32, %struct.CoMutex, %struct.QemuMutex }
%struct.anon.6 = type { ptr }
%struct.anon.7 = type { ptr }

; Function Attrs: nounwind sspstrong uwtable
define internal i32 @v9fs_reopen_fid(ptr noundef %pdu, ptr noundef %f) #0 {
entry:
  %pdu.addr = alloca ptr, align 8
  %f.addr = alloca ptr, align 8
  %err = alloca i32, align 4
  store ptr %pdu, ptr %pdu.addr, align 8
  store ptr %f, ptr %f.addr, align 8
  store i32 1, ptr %err, align 4
  %0 = load ptr, ptr %f.addr, align 8
  %fid_type = getelementptr inbounds %struct.V9fsFidState, ptr %0, i32 0, i32 0
  %1 = load i32, ptr %fid_type, align 8
  %cmp = icmp eq i32 %1, 1
  br i1 %cmp, label %if.then, label %if.else

if.then:                                          ; preds = %entry
  %2 = load ptr, ptr %f.addr, align 8
  %fs = getelementptr inbounds %struct.V9fsFidState, ptr %2, i32 0, i32 3
  %3 = load i32, ptr %fs, align 8
  %cmp1 = icmp eq i32 %3, -1
  br i1 %cmp1, label %if.then2, label %if.end

if.then2:                                         ; preds = %if.then
  br label %do.body

do.body:                                          ; preds = %land.end, %if.then2
  %4 = load ptr, ptr %pdu.addr, align 8
  %5 = load ptr, ptr %f.addr, align 8
  %6 = load ptr, ptr %f.addr, align 8
  %open_flags = getelementptr inbounds %struct.V9fsFidState, ptr %6, i32 0, i32 6
  %7 = load i32, ptr %open_flags, align 4
  %call = call i32 @v9fs_co_open(ptr noundef %4, ptr noundef %5, i32 noundef %7)
  store i32 %call, ptr %err, align 4
  br label %do.cond

do.cond:                                          ; preds = %do.body
  %8 = load i32, ptr %err, align 4
  %cmp3 = icmp eq i32 %8, -4
  br i1 %cmp3, label %land.rhs, label %land.end

land.rhs:                                         ; preds = %do.cond
  %9 = load ptr, ptr %pdu.addr, align 8
  %cancelled = getelementptr inbounds %struct.V9fsPDU, ptr %9, i32 0, i32 3
  %10 = load i8, ptr %cancelled, align 1
  %tobool = icmp ne i8 %10, 0
  %lnot = xor i1 %tobool, true
  br label %land.end

land.end:                                         ; preds = %land.rhs, %do.cond
  %11 = phi i1 [ false, %do.cond ], [ %lnot, %land.rhs ]
  br i1 %11, label %do.body, label %do.end, !llvm.loop !21

do.end:                                           ; preds = %land.end
  br label %if.end

if.end:                                           ; preds = %do.end, %if.then
  br label %if.end22

if.else:                                          ; preds = %entry
  %12 = load ptr, ptr %f.addr, align 8
  %fid_type4 = getelementptr inbounds %struct.V9fsFidState, ptr %12, i32 0, i32 0
  %13 = load i32, ptr %fid_type4, align 8
  %cmp5 = icmp eq i32 %13, 2
  br i1 %cmp5, label %if.then6, label %if.end21

if.then6:                                         ; preds = %if.else
  %14 = load ptr, ptr %f.addr, align 8
  %fs7 = getelementptr inbounds %struct.V9fsFidState, ptr %14, i32 0, i32 3
  %stream = getelementptr inbounds %struct.V9fsDir, ptr %fs7, i32 0, i32 0
  %15 = load ptr, ptr %stream, align 8
  %cmp8 = icmp eq ptr %15, null
  br i1 %cmp8, label %if.then9, label %if.end20

if.then9:                                         ; preds = %if.then6
  br label %do.body10

do.body10:                                        ; preds = %land.end18, %if.then9
  %16 = load ptr, ptr %pdu.addr, align 8
  %17 = load ptr, ptr %f.addr, align 8
  %call11 = call i32 @v9fs_co_opendir(ptr noundef %16, ptr noundef %17)
  store i32 %call11, ptr %err, align 4
  br label %do.cond12

do.cond12:                                        ; preds = %do.body10
  %18 = load i32, ptr %err, align 4
  %cmp13 = icmp eq i32 %18, -4
  br i1 %cmp13, label %land.rhs14, label %land.end18

land.rhs14:                                       ; preds = %do.cond12
  %19 = load ptr, ptr %pdu.addr, align 8
  %cancelled15 = getelementptr inbounds %struct.V9fsPDU, ptr %19, i32 0, i32 3
  %20 = load i8, ptr %cancelled15, align 1
  %tobool16 = icmp ne i8 %20, 0
  %lnot17 = xor i1 %tobool16, true
  br label %land.end18

land.end18:                                       ; preds = %land.rhs14, %do.cond12
  %21 = phi i1 [ false, %do.cond12 ], [ %lnot17, %land.rhs14 ]
  br i1 %21, label %do.body10, label %do.end19, !llvm.loop !22

do.end19:                                         ; preds = %land.end18
  br label %if.end20

if.end20:                                         ; preds = %do.end19, %if.then6
  br label %if.end21

if.end21:                                         ; preds = %if.end20, %if.else
  br label %if.end22

if.end22:                                         ; preds = %if.end21, %if.end
  %22 = load i32, ptr %err, align 4
  ret i32 %22
}