; Function Attrs: nounwind sspstrong uwtable
define internal i32 @v9fs_reopen_fid(ptr noundef %pdu, ptr noundef %f) #0 {
entry:
  %0 = load i32, ptr %f, align 8
  switch i32 %0, label %if.end22 [
    i32 1, label %if.then
    i32 2, label %if.then6
  ]

if.then:                                          ; preds = %entry
  %fs = getelementptr inbounds nuw i8, ptr %f, i64 24
  %1 = load i32, ptr %fs, align 8
  %cmp1 = icmp eq i32 %1, -1
  br i1 %cmp1, label %do.body.preheader, label %if.end22

do.body.preheader:                                ; preds = %if.then
  %cancelled = getelementptr inbounds nuw i8, ptr %pdu, i64 7
  %open_flags = getelementptr inbounds nuw i8, ptr %f, i64 252
  br label %do.body

do.body:                                          ; preds = %do.body.preheader, %land.rhs
  %2 = load i32, ptr %open_flags, align 4
  %call = tail call i32 @v9fs_co_open(ptr noundef %pdu, ptr noundef nonnull %f, i32 noundef %2) #24
  %cmp3 = icmp eq i32 %call, -4
  br i1 %cmp3, label %land.rhs, label %if.end22

land.rhs:                                         ; preds = %do.body
  %3 = load i8, ptr %cancelled, align 1
  %tobool.not = icmp eq i8 %3, 0
  br i1 %tobool.not, label %do.body, label %if.end22, !llvm.loop !22

if.then6:                                         ; preds = %entry
  %fs7 = getelementptr inbounds nuw i8, ptr %f, i64 24
  %4 = load ptr, ptr %fs7, align 8
  %cmp8 = icmp eq ptr %4, null
  br i1 %cmp8, label %do.body10.preheader, label %if.end22

do.body10.preheader:                              ; preds = %if.then6
  %cancelled15 = getelementptr inbounds nuw i8, ptr %pdu, i64 7
  br label %do.body10

do.body10:                                        ; preds = %do.body10.preheader, %land.rhs14
  %call11 = tail call i32 @v9fs_co_opendir(ptr noundef %pdu, ptr noundef nonnull %f) #24
  %cmp13 = icmp eq i32 %call11, -4
  br i1 %cmp13, label %land.rhs14, label %if.end22

land.rhs14:                                       ; preds = %do.body10
  %5 = load i8, ptr %cancelled15, align 1
  %tobool16.not = icmp eq i8 %5, 0
  br i1 %tobool16.not, label %do.body10, label %if.end22, !llvm.loop !23

if.end22:                                         ; preds = %do.body10, %land.rhs14, %do.body, %land.rhs, %entry, %if.then6, %if.then
  %err.0 = phi i32 [ 1, %if.then ], [ 1, %if.then6 ], [ 1, %entry ], [ %call, %do.body ], [ -4, %land.rhs ], [ %call11, %do.body10 ], [ -4, %land.rhs14 ]
  ret i32 %err.0
}